; Function Attrs: mustprogress uwtable
define dso_local void @_ZNK22cmNinjaTargetGenerator17GetTargetFilePathERKNSt7__cxx1112basic_stringIcSt11char_traitsIcESaIcEEES7_(ptr dead_on_unwind noalias writable sret(%"class.std::__cxx11::basic_string") align 8 %0, ptr noundef nonnull align 8 dereferenceable(240) %1, ptr noundef nonnull align 8 dereferenceable(32) %2, ptr noundef nonnull align 8 dereferenceable(32) %3) local_unnamed_addr #3 align 2 personality ptr @__gxx_personality_v0 {
  %5 = alloca [2 x %"struct.std::pair.982"], align 8
  %6 = alloca %class.cmAlphaNum, align 8
  %7 = alloca %"class.std::__cxx11::basic_string", align 8
  %8 = alloca %"class.std::__cxx11::basic_string", align 8
  %9 = load ptr, ptr %1, align 8
  %10 = getelementptr inbounds i8, ptr %9, i64 40
  %11 = load ptr, ptr %10, align 8
  call void %11(ptr dead_on_unwind nonnull writable sret(%"class.std::__cxx11::basic_string") align 8 %7, ptr noundef nonnull align 8 dereferenceable(240) %1, ptr noundef nonnull align 8 dereferenceable(32) %3)
  %12 = call noundef zeroext i1 @_ZNKSt7__cxx1112basic_stringIcSt11char_traitsIcESaIcEE5emptyEv(ptr noundef nonnull align 8 dereferenceable(32) %7) #24
  br i1 %12, label %16, label %13

13:                                               ; preds = %4
  %14 = call noundef i32 @_ZNKSt7__cxx1112basic_stringIcSt11char_traitsIcESaIcEE7compareEPKc(ptr noundef nonnull align 8 dereferenceable(32) %7, ptr noundef nonnull @.str.34) #24
  %15 = icmp eq i32 %14, 0
  br i1 %15, label %16, label %19

16:                                               ; preds = %13, %4
  invoke void @_ZNSt7__cxx1112basic_stringIcSt11char_traitsIcESaIcEEC1ERKS4_(ptr noundef nonnull align 8 dereferenceable(32) %0, ptr noundef nonnull align 8 dereferenceable(32) %2)
          to label %34 unwind label %17

17:                                               ; preds = %19, %16
  %18 = landingpad { ptr, i32 }
          cleanup
  br label %35

19:                                               ; preds = %13
  call void @llvm.lifetime.start.p0(i64 48, ptr nonnull %5)
  call void @llvm.lifetime.start.p0(i64 56, ptr nonnull %6)
  store ptr null, ptr %6, align 8, !noalias !325
  %20 = getelementptr inbounds i8, ptr %6, i64 8
  %21 = getelementptr inbounds i8, ptr %6, i64 24
  store i64 1, ptr %20, align 8, !noalias !325
  %22 = getelementptr inbounds i8, ptr %6, i64 16
  store ptr %21, ptr %22, align 8, !noalias !325
  store i8 47, ptr %21, align 8, !noalias !325
  store i64 1, ptr %5, align 8, !alias.scope !328, !noalias !325
  %.sroa.2.0..sroa_idx.i.i = getelementptr inbounds i8, ptr %5, i64 8
  store ptr %21, ptr %.sroa.2.0..sroa_idx.i.i, align 8, !alias.scope !328, !noalias !325
  %23 = getelementptr inbounds i8, ptr %5, i64 16
  store ptr null, ptr %23, align 8, !alias.scope !328, !noalias !325
  %24 = getelementptr inbounds i8, ptr %5, i64 24
  %25 = call { i64, ptr } @_ZNKSt7__cxx1112basic_stringIcSt11char_traitsIcESaIcEEcvSt17basic_string_viewIcS2_EEv(ptr noundef nonnull align 8 dereferenceable(32) %2) #24, !noalias !325
  %26 = extractvalue { i64, ptr } %25, 0
  %27 = extractvalue { i64, ptr } %25, 1
  store i64 %26, ptr %24, align 8, !alias.scope !331, !noalias !325
  %.sroa.2.0..sroa_idx.i6.i = getelementptr inbounds i8, ptr %5, i64 32
  store ptr %27, ptr %.sroa.2.0..sroa_idx.i6.i, align 8, !alias.scope !331, !noalias !325
  %28 = getelementptr inbounds i8, ptr %5, i64 40
  store ptr null, ptr %28, align 8, !alias.scope !331, !noalias !325
  invoke void @_Z10cmCatViewsSt16initializer_listISt4pairISt17basic_string_viewIcSt11char_traitsIcEEPNSt7__cxx1112basic_stringIcS3_SaIcEEEEE(ptr dead_on_unwind nonnull writable sret(%"class.std::__cxx11::basic_string") align 8 %8, ptr nonnull %5, i64 2)
          to label %29 unwind label %17

29:                                               ; preds = %19
  call void @llvm.lifetime.end.p0(i64 48, ptr nonnull %5)
  call void @llvm.lifetime.end.p0(i64 56, ptr nonnull %6)
  %30 = invoke noundef nonnull align 8 dereferenceable(32) ptr @_ZNSt7__cxx1112basic_stringIcSt11char_traitsIcESaIcEEpLERKS4_(ptr noundef nonnull align 8 dereferenceable(32) %7, ptr noundef nonnull align 8 dereferenceable(32) %8)
          to label %31 unwind label %32

31:                                               ; preds = %29
  call void @_ZNSt7__cxx1112basic_stringIcSt11char_traitsIcESaIcEED1Ev(ptr noundef nonnull align 8 dereferenceable(32) %8) #24
  call void @_ZNSt7__cxx1112basic_stringIcSt11char_traitsIcESaIcEEC1EOS4_(ptr noundef nonnull align 8 dereferenceable(32) %0, ptr noundef nonnull align 8 dereferenceable(32) %7) #24
  br label %34

32:                                               ; preds = %29
  %33 = landingpad { ptr, i32 }
          cleanup
  call void @_ZNSt7__cxx1112basic_stringIcSt11char_traitsIcESaIcEED1Ev(ptr noundef nonnull align 8 dereferenceable(32) %8) #24
  br label %35

34:                                               ; preds = %16, %31
  call void @_ZNSt7__cxx1112basic_stringIcSt11char_traitsIcESaIcEED1Ev(ptr noundef nonnull align 8 dereferenceable(32) %7) #24
  ret void

35:                                               ; preds = %32, %17
  %.pn = phi { ptr, i32 } [ %18, %17 ], [ %33, %32 ]
  call void @_ZNSt7__cxx1112basic_stringIcSt11char_traitsIcESaIcEED1Ev(ptr noundef nonnull align 8 dereferenceable(32) %7) #24
  resume { ptr, i32 } %.pn
}